target datalayout = "e-m:e-p270:32:32-p271:32:32-p272:64:64-i64:64-i128:128-f80:128-n8:16:32:64-S128"
target triple = "x86_64-pc-linux-gnu"

@.str.4 = private unnamed_addr constant [5 x i8] c"true\00", align 1
@.str.5 = private unnamed_addr constant [6 x i8] c"false\00", align 1
@.str.6 = private unnamed_addr constant [7 x i8] c" \09\0A\0B\0C\0D\00", align 1
@.str.7 = private unnamed_addr constant [2 x i8] c"t\00", align 1
@.str.8 = private unnamed_addr constant [8 x i8] c"enabled\00", align 1
@.str.9 = private unnamed_addr constant [4 x i8] c"yes\00", align 1
@.str.10 = private unnamed_addr constant [2 x i8] c"f\00", align 1
@.str.11 = private unnamed_addr constant [9 x i8] c"disabled\00", align 1
@.str.12 = private unnamed_addr constant [3 x i8] c"no\00", align 1

; Function Attrs: nounwind uwtable
define internal i32 @pmix_mca_base_var_enum_bool_vfs(ptr noundef %0, ptr noundef %1, ptr noundef %2) #0 {
  %4 = alloca i32, align 4
  %5 = alloca ptr, align 8
  %6 = alloca ptr, align 8
  %7 = alloca ptr, align 8
  %8 = alloca ptr, align 8
  %9 = alloca i32, align 4
  %10 = alloca i32, align 4
  store ptr %0, ptr %5, align 8, !tbaa !3
  store ptr %1, ptr %6, align 8, !tbaa !49
  store ptr %2, ptr %7, align 8, !tbaa !45
  call void @llvm.lifetime.start.p0(i64 8, ptr %8) #13
  call void @llvm.lifetime.start.p0(i64 4, ptr %9) #13
  %11 = load ptr, ptr %6, align 8, !tbaa !49
  %12 = call i64 @strspn(ptr noundef %11, ptr noundef @.str.6) #14
  %13 = load ptr, ptr %6, align 8, !tbaa !49
  %14 = getelementptr inbounds nuw i8, ptr %13, i64 %12
  store ptr %14, ptr %6, align 8, !tbaa !49
  %15 = load ptr, ptr %6, align 8, !tbaa !49
  %16 = call i64 @strtol(ptr noundef %15, ptr noundef %8, i32 noundef 10) #13
  %17 = trunc i64 %16 to i32
  store i32 %17, ptr %9, align 4, !tbaa !24
  %18 = load ptr, ptr %8, align 8, !tbaa !49
  %19 = load i8, ptr %18, align 1, !tbaa !50
  %20 = sext i8 %19 to i32
  %21 = icmp ne i32 %20, 0
  br i1 %21, label %22, label %59

22:                                               ; preds = %3
  %23 = load ptr, ptr %6, align 8, !tbaa !49
  %24 = call i32 @strcmp(ptr noundef %23, ptr noundef @.str.4) #14
  %25 = icmp eq i32 0, %24
  br i1 %25, label %38, label %26

26:                                               ; preds = %22
  %27 = load ptr, ptr %6, align 8, !tbaa !49
  %28 = call i32 @strcmp(ptr noundef %27, ptr noundef @.str.7) #14
  %29 = icmp eq i32 0, %28
  br i1 %29, label %38, label %30

30:                                               ; preds = %26
  %31 = load ptr, ptr %6, align 8, !tbaa !49
  %32 = call i32 @strcmp(ptr noundef %31, ptr noundef @.str.8) #14
  %33 = icmp eq i32 0, %32
  br i1 %33, label %38, label %34

34:                                               ; preds = %30
  %35 = load ptr, ptr %6, align 8, !tbaa !49
  %36 = call i32 @strcmp(ptr noundef %35, ptr noundef @.str.9) #14
  %37 = icmp eq i32 0, %36
  br i1 %37, label %38, label %39

38:                                               ; preds = %34, %30, %26, %22
  store i32 1, ptr %9, align 4, !tbaa !24
  br label %58

39:                                               ; preds = %34
  %40 = load ptr, ptr %6, align 8, !tbaa !49
  %41 = call i32 @strcmp(ptr noundef %40, ptr noundef @.str.5) #14
  %42 = icmp eq i32 0, %41
  br i1 %42, label %55, label %43

43:                                               ; preds = %39
  %44 = load ptr, ptr %6, align 8, !tbaa !49
  %45 = call i32 @strcmp(ptr noundef %44, ptr noundef @.str.10) #14
  %46 = icmp eq i32 0, %45
  br i1 %46, label %55, label %47

47:                                               ; preds = %43
  %48 = load ptr, ptr %6, align 8, !tbaa !49
  %49 = call i32 @strcmp(ptr noundef %48, ptr noundef @.str.11) #14
  %50 = icmp eq i32 0, %49
  br i1 %50, label %55, label %51

51:                                               ; preds = %47
  %52 = load ptr, ptr %6, align 8, !tbaa !49
  %53 = call i32 @strcmp(ptr noundef %52, ptr noundef @.str.12) #14
  %54 = icmp eq i32 0, %53
  br i1 %54, label %55, label %56

55:                                               ; preds = %51, %47, %43, %39
  store i32 0, ptr %9, align 4, !tbaa !24
  br label %57

56:                                               ; preds = %51
  store i32 -65, ptr %4, align 4
  store i32 1, ptr %10, align 4
  br label %66

57:                                               ; preds = %55
  br label %58

58:                                               ; preds = %57, %38
  br label %59

59:                                               ; preds = %58, %3
  %60 = load i32, ptr %9, align 4, !tbaa !24
  %61 = icmp ne i32 %60, 0
  %62 = xor i1 %61, true
  %63 = xor i1 %62, true
  %64 = zext i1 %63 to i32
  %65 = load ptr, ptr %7, align 8, !tbaa !45
  store i32 %64, ptr %65, align 4, !tbaa !24
  store i32 0, ptr %4, align 4
  store i32 1, ptr %10, align 4
  br label %66

66:                                               ; preds = %59, %56
  call void @llvm.lifetime.end.p0(i64 4, ptr %9) #13
  call void @llvm.lifetime.end.p0(i64 8, ptr %8) #13
  %67 = load i32, ptr %4, align 4
  ret i32 %67
}