; Function Attrs: mustprogress nofree nounwind willreturn uwtable
define internal range(i32 -65, 1) i32 @pmix_mca_base_var_enum_bool_vfs(ptr readnone captures(none) %0, ptr noundef %1, ptr noundef writeonly captures(none) %2) #2 {
  %4 = alloca ptr, align 8
  call void @llvm.lifetime.start.p0(i64 8, ptr nonnull %4) #21
  %5 = tail call i64 @strspn(ptr noundef %1, ptr noundef nonnull @.str.6) #22
  %6 = getelementptr inbounds nuw i8, ptr %1, i64 %5
  %7 = call i64 @strtol(ptr noundef %6, ptr noundef nonnull %4, i32 noundef 10) #21
  %8 = trunc i64 %7 to i32
  %9 = load ptr, ptr %4, align 8, !tbaa !41
  %10 = load i8, ptr %9, align 1, !tbaa !42
  %.not = icmp eq i8 %10, 0
  br i1 %.not, label %38, label %11

11:                                               ; preds = %3
  %12 = tail call i32 @strcmp(ptr noundef nonnull dereferenceable(1) %6, ptr noundef nonnull dereferenceable(5) @.str.4) #22
  %13 = icmp eq i32 %12, 0
  br i1 %13, label %38, label %sub_0

sub_0:                                            ; preds = %11
  %14 = load i8, ptr %6, align 1
  %.not22 = icmp eq i8 %14, 116
  br i1 %.not22, label %.tail, label %.tail.thread

.tail:                                            ; preds = %sub_0
  %15 = getelementptr inbounds nuw i8, ptr %6, i64 1
  %16 = load i8, ptr %15, align 1
  %17 = icmp eq i8 %16, 0
  br i1 %17, label %38, label %.tail.thread

.tail.thread:                                     ; preds = %sub_0, %.tail
  %18 = tail call i32 @strcmp(ptr noundef nonnull dereferenceable(1) %6, ptr noundef nonnull dereferenceable(8) @.str.8) #22
  %19 = icmp eq i32 %18, 0
  br i1 %19, label %38, label %20

20:                                               ; preds = %.tail.thread
  %21 = tail call i32 @strcmp(ptr noundef nonnull dereferenceable(1) %6, ptr noundef nonnull dereferenceable(4) @.str.9) #22
  %22 = icmp eq i32 %21, 0
  br i1 %22, label %38, label %23

23:                                               ; preds = %20
  %24 = tail call i32 @strcmp(ptr noundef nonnull dereferenceable(1) %6, ptr noundef nonnull dereferenceable(6) @.str.5) #22
  %25 = icmp eq i32 %24, 0
  br i1 %25, label %38, label %sub_015

sub_015:                                          ; preds = %23
  %.not23 = icmp eq i8 %14, 102
  br i1 %.not23, label %.tail14, label %.tail14.thread

.tail14:                                          ; preds = %sub_015
  %26 = getelementptr inbounds nuw i8, ptr %6, i64 1
  %27 = load i8, ptr %26, align 1
  %28 = icmp eq i8 %27, 0
  br i1 %28, label %38, label %.thread

.tail14.thread:                                   ; preds = %sub_015
  %29 = tail call i32 @strcmp(ptr noundef nonnull dereferenceable(1) %6, ptr noundef nonnull dereferenceable(9) @.str.11) #22
  %30 = icmp eq i32 %29, 0
  br i1 %30, label %38, label %sub_019

.thread:                                          ; preds = %.tail14
  %31 = tail call i32 @strcmp(ptr noundef nonnull dereferenceable(1) %6, ptr noundef nonnull dereferenceable(9) @.str.11) #22
  %32 = icmp eq i32 %31, 0
  br i1 %32, label %38, label %.tail18.thread

sub_019:                                          ; preds = %.tail14.thread
  %.not24 = icmp eq i8 %14, 110
  br i1 %.not24, label %sub_120, label %.tail18.thread

sub_120:                                          ; preds = %sub_019
  %33 = getelementptr inbounds nuw i8, ptr %6, i64 1
  %34 = load i8, ptr %33, align 1
  %.not25 = icmp eq i8 %34, 111
  br i1 %.not25, label %.tail18, label %.tail18.thread

.tail18:                                          ; preds = %sub_120
  %35 = getelementptr inbounds nuw i8, ptr %6, i64 2
  %36 = load i8, ptr %35, align 1
  %37 = icmp eq i8 %36, 0
  br i1 %37, label %38, label %.tail18.thread

38:                                               ; preds = %.thread, %23, %.tail14, %.tail14.thread, %.tail18, %11, %.tail, %.tail.thread, %20, %3
  %.0 = phi i32 [ %8, %3 ], [ 1, %20 ], [ 1, %.tail.thread ], [ 1, %.tail ], [ 1, %11 ], [ 0, %.tail18 ], [ 0, %.tail14.thread ], [ 0, %.tail14 ], [ 0, %23 ], [ 0, %.thread ]
  %39 = icmp ne i32 %.0, 0
  %40 = zext i1 %39 to i32
  store i32 %40, ptr %2, align 4, !tbaa !40
  br label %.tail18.thread

.tail18.thread:                                   ; preds = %.thread, %sub_120, %sub_019, %.tail18, %38
  %.013 = phi i32 [ 0, %38 ], [ -65, %.tail18 ], [ -65, %sub_019 ], [ -65, %sub_120 ], [ -65, %.thread ]
  call void @llvm.lifetime.end.p0(i64 8, ptr nonnull %4) #21
  ret i32 %.013
}